target datalayout = "e-m:e-p270:32:32-p271:32:32-p272:64:64-i64:64-i128:128-f80:128-n8:16:32:64-S128"
target triple = "x86_64-pc-linux-gnu"

%struct.HTTPAuthState = type { i32, [200 x i8], %struct.DigestParams, i32 }
%struct.DigestParams = type { [300 x i8], [10 x i8], [30 x i8], [300 x i8], [10 x i8], i32 }

@.str = private unnamed_addr constant [17 x i8] c"WWW-Authenticate\00", align 1
@.str.1 = private unnamed_addr constant [19 x i8] c"Proxy-Authenticate\00", align 1
@.str.2 = private unnamed_addr constant [7 x i8] c"Basic \00", align 1
@.str.3 = private unnamed_addr constant [8 x i8] c"Digest \00", align 1
@.str.4 = private unnamed_addr constant [5 x i8] c"true\00", align 1
@.str.5 = private unnamed_addr constant [20 x i8] c"Authentication-Info\00", align 1
@.str.14 = private unnamed_addr constant [5 x i8] c"auth\00", align 1

; Function Attrs: inlinehint nounwind willreturn memory(none) uwtable
define internal i32 @av_isspace(i32 noundef %0) #6 {
  %2 = alloca i32, align 4
  store i32 %0, ptr %2, align 4, !tbaa !17
  %3 = load i32, ptr %2, align 4, !tbaa !17
  %4 = icmp eq i32 %3, 32
  br i1 %4, label %20, label %5

5:                                                ; preds = %1
  %6 = load i32, ptr %2, align 4, !tbaa !17
  %7 = icmp eq i32 %6, 12
  br i1 %7, label %20, label %8

8:                                                ; preds = %5
  %9 = load i32, ptr %2, align 4, !tbaa !17
  %10 = icmp eq i32 %9, 10
  br i1 %10, label %20, label %11

11:                                               ; preds = %8
  %12 = load i32, ptr %2, align 4, !tbaa !17
  %13 = icmp eq i32 %12, 13
  br i1 %13, label %20, label %14

14:                                               ; preds = %11
  %15 = load i32, ptr %2, align 4, !tbaa !17
  %16 = icmp eq i32 %15, 9
  br i1 %16, label %20, label %17

17:                                               ; preds = %14
  %18 = load i32, ptr %2, align 4, !tbaa !17
  %19 = icmp eq i32 %18, 11
  br label %20

20:                                               ; preds = %17, %14, %11, %8, %5, %1
  %21 = phi i1 [ true, %14 ], [ true, %11 ], [ true, %8 ], [ true, %5 ], [ true, %1 ], [ %19, %17 ]
  %22 = zext i1 %21 to i32
  ret i32 %22
}

; Function Attrs: nounwind uwtable
define internal void @choose_qop(ptr noundef %0, i32 noundef %1) #0 {
  %3 = alloca ptr, align 8
  %4 = alloca i32, align 4
  %5 = alloca ptr, align 8
  %6 = alloca ptr, align 8
  store ptr %0, ptr %3, align 8, !tbaa !9
  store i32 %1, ptr %4, align 4, !tbaa !17
  call void @llvm.lifetime.start.p0(i64 8, ptr %5) #8
  %7 = load ptr, ptr %3, align 8, !tbaa !9
  %8 = call ptr @strstr(ptr noundef %7, ptr noundef @.str.14) #9
  store ptr %8, ptr %5, align 8, !tbaa !9
  call void @llvm.lifetime.start.p0(i64 8, ptr %6) #8
  %9 = load ptr, ptr %5, align 8, !tbaa !9
  %10 = getelementptr inbounds nuw i8, ptr %9, i64 4
  store ptr %10, ptr %6, align 8, !tbaa !9
  %11 = load ptr, ptr %5, align 8, !tbaa !9
  %12 = icmp ne ptr %11, null
  br i1 %12, label %13, label %50

13:                                               ; preds = %2
  %14 = load ptr, ptr %6, align 8, !tbaa !9
  %15 = load i8, ptr %14, align 1, !tbaa !15
  %16 = icmp ne i8 %15, 0
  br i1 %16, label %17, label %28

17:                                               ; preds = %13
  %18 = load ptr, ptr %6, align 8, !tbaa !9
  %19 = load i8, ptr %18, align 1, !tbaa !15
  %20 = sext i8 %19 to i32
  %21 = call i32 @av_isspace(i32 noundef %20) #10
  %22 = icmp ne i32 %21, 0
  br i1 %22, label %28, label %23

23:                                               ; preds = %17
  %24 = load ptr, ptr %6, align 8, !tbaa !9
  %25 = load i8, ptr %24, align 1, !tbaa !15
  %26 = sext i8 %25 to i32
  %27 = icmp eq i32 %26, 44
  br i1 %27, label %28, label %50

28:                                               ; preds = %23, %17, %13
  %29 = load ptr, ptr %5, align 8, !tbaa !9
  %30 = load ptr, ptr %3, align 8, !tbaa !9
  %31 = icmp eq ptr %29, %30
  br i1 %31, label %45, label %32

32:                                               ; preds = %28
  %33 = load ptr, ptr %5, align 8, !tbaa !9
  %34 = getelementptr inbounds i8, ptr %33, i64 -1
  %35 = load i8, ptr %34, align 1, !tbaa !15
  %36 = sext i8 %35 to i32
  %37 = call i32 @av_isspace(i32 noundef %36) #10
  %38 = icmp ne i32 %37, 0
  br i1 %38, label %45, label %39

39:                                               ; preds = %32
  %40 = load ptr, ptr %5, align 8, !tbaa !9
  %41 = getelementptr inbounds i8, ptr %40, i64 -1
  %42 = load i8, ptr %41, align 1, !tbaa !15
  %43 = sext i8 %42 to i32
  %44 = icmp eq i32 %43, 44
  br i1 %44, label %45, label %50

45:                                               ; preds = %39, %32, %28
  %46 = load ptr, ptr %3, align 8, !tbaa !9
  %47 = load i32, ptr %4, align 4, !tbaa !17
  %48 = sext i32 %47 to i64
  %49 = call i64 @av_strlcpy(ptr noundef %46, ptr noundef @.str.14, i64 noundef %48)
  br label %53

50:                                               ; preds = %39, %23, %2
  %51 = load ptr, ptr %3, align 8, !tbaa !9
  %52 = getelementptr inbounds i8, ptr %51, i64 0
  store i8 0, ptr %52, align 1, !tbaa !15
  br label %53

53:                                               ; preds = %50, %45
  call void @llvm.lifetime.end.p0(i64 8, ptr %6) #8
  call void @llvm.lifetime.end.p0(i64 8, ptr %5) #8
  ret void
}

; Function Attrs: nounwind uwtable
define void @ff_http_auth_handle_header(ptr noundef %0, ptr noundef %1, ptr noundef %2) #0 {
  %4 = alloca ptr, align 8
  %5 = alloca ptr, align 8
  %6 = alloca ptr, align 8
  %7 = alloca ptr, align 8
  store ptr %0, ptr %4, align 8, !tbaa !4
  store ptr %1, ptr %5, align 8, !tbaa !9
  store ptr %2, ptr %6, align 8, !tbaa !9
  %8 = load ptr, ptr %5, align 8, !tbaa !9
  %9 = call i32 @av_strcasecmp(ptr noundef %8, ptr noundef @.str)
  %10 = icmp ne i32 %9, 0
  br i1 %10, label %11, label %15

11:                                               ; preds = %3
  %12 = load ptr, ptr %5, align 8, !tbaa !9
  %13 = call i32 @av_strcasecmp(ptr noundef %12, ptr noundef @.str.1)
  %14 = icmp ne i32 %13, 0
  br i1 %14, label %71, label %15

15:                                               ; preds = %11, %3
  call void @llvm.lifetime.start.p0(i64 8, ptr %7) #8
  %16 = load ptr, ptr %6, align 8, !tbaa !9
  %17 = call i32 @av_stristart(ptr noundef %16, ptr noundef @.str.2, ptr noundef %7)
  %18 = icmp ne i32 %17, 0
  br i1 %18, label %19, label %34

19:                                               ; preds = %15
  %20 = load ptr, ptr %4, align 8, !tbaa !4
  %21 = getelementptr inbounds nuw %struct.HTTPAuthState, ptr %20, i32 0, i32 0
  %22 = load i32, ptr %21, align 4, !tbaa !11
  %23 = icmp sle i32 %22, 1
  br i1 %23, label %24, label %34

24:                                               ; preds = %19
  %25 = load ptr, ptr %4, align 8, !tbaa !4
  %26 = getelementptr inbounds nuw %struct.HTTPAuthState, ptr %25, i32 0, i32 0
  store i32 1, ptr %26, align 4, !tbaa !11
  %27 = load ptr, ptr %4, align 8, !tbaa !4
  %28 = getelementptr inbounds nuw %struct.HTTPAuthState, ptr %27, i32 0, i32 1
  %29 = getelementptr inbounds [200 x i8], ptr %28, i64 0, i64 0
  store i8 0, ptr %29, align 4, !tbaa !15
  %30 = load ptr, ptr %4, align 8, !tbaa !4
  %31 = getelementptr inbounds nuw %struct.HTTPAuthState, ptr %30, i32 0, i32 3
  store i32 0, ptr %31, align 4, !tbaa !16
  %32 = load ptr, ptr %7, align 8, !tbaa !9
  %33 = load ptr, ptr %4, align 8, !tbaa !4
  call void @ff_parse_key_value(ptr noundef %32, ptr noundef @handle_basic_params, ptr noundef %33)
  br label %70

34:                                               ; preds = %19, %15
  %35 = load ptr, ptr %6, align 8, !tbaa !9
  %36 = call i32 @av_stristart(ptr noundef %35, ptr noundef @.str.3, ptr noundef %7)
  %37 = icmp ne i32 %36, 0
  br i1 %37, label %38, label %69

38:                                               ; preds = %34
  %39 = load ptr, ptr %4, align 8, !tbaa !4
  %40 = getelementptr inbounds nuw %struct.HTTPAuthState, ptr %39, i32 0, i32 0
  %41 = load i32, ptr %40, align 4, !tbaa !11
  %42 = icmp sle i32 %41, 2
  br i1 %42, label %43, label %69

43:                                               ; preds = %38
  %44 = load ptr, ptr %4, align 8, !tbaa !4
  %45 = getelementptr inbounds nuw %struct.HTTPAuthState, ptr %44, i32 0, i32 0
  store i32 2, ptr %45, align 4, !tbaa !11
  %46 = load ptr, ptr %4, align 8, !tbaa !4
  %47 = getelementptr inbounds nuw %struct.HTTPAuthState, ptr %46, i32 0, i32 2
  call void @llvm.memset.p0.i64(ptr align 4 %47, i8 0, i64 656, i1 false)
  %48 = load ptr, ptr %4, align 8, !tbaa !4
  %49 = getelementptr inbounds nuw %struct.HTTPAuthState, ptr %48, i32 0, i32 1
  %50 = getelementptr inbounds [200 x i8], ptr %49, i64 0, i64 0
  store i8 0, ptr %50, align 4, !tbaa !15
  %51 = load ptr, ptr %4, align 8, !tbaa !4
  %52 = getelementptr inbounds nuw %struct.HTTPAuthState, ptr %51, i32 0, i32 3
  store i32 0, ptr %52, align 4, !tbaa !16
  %53 = load ptr, ptr %7, align 8, !tbaa !9
  %54 = load ptr, ptr %4, align 8, !tbaa !4
  call void @ff_parse_key_value(ptr noundef %53, ptr noundef @handle_digest_params, ptr noundef %54)
  %55 = load ptr, ptr %4, align 8, !tbaa !4
  %56 = getelementptr inbounds nuw %struct.HTTPAuthState, ptr %55, i32 0, i32 2
  %57 = getelementptr inbounds nuw %struct.DigestParams, ptr %56, i32 0, i32 2
  %58 = getelementptr inbounds [30 x i8], ptr %57, i64 0, i64 0
  call void @choose_qop(ptr noundef %58, i32 noundef 30)
  %59 = load ptr, ptr %4, align 8, !tbaa !4
  %60 = getelementptr inbounds nuw %struct.HTTPAuthState, ptr %59, i32 0, i32 2
  %61 = getelementptr inbounds nuw %struct.DigestParams, ptr %60, i32 0, i32 4
  %62 = getelementptr inbounds [10 x i8], ptr %61, i64 0, i64 0
  %63 = call i32 @av_strcasecmp(ptr noundef %62, ptr noundef @.str.4)
  %64 = icmp ne i32 %63, 0
  br i1 %64, label %68, label %65

65:                                               ; preds = %43
  %66 = load ptr, ptr %4, align 8, !tbaa !4
  %67 = getelementptr inbounds nuw %struct.HTTPAuthState, ptr %66, i32 0, i32 3
  store i32 1, ptr %67, align 4, !tbaa !16
  br label %68

68:                                               ; preds = %65, %43
  br label %69

69:                                               ; preds = %68, %38, %34
  br label %70

70:                                               ; preds = %69, %24
  call void @llvm.lifetime.end.p0(i64 8, ptr %7) #8
  br label %79

71:                                               ; preds = %11
  %72 = load ptr, ptr %5, align 8, !tbaa !9
  %73 = call i32 @av_strcasecmp(ptr noundef %72, ptr noundef @.str.5)
  %74 = icmp ne i32 %73, 0
  br i1 %74, label %78, label %75

75:                                               ; preds = %71
  %76 = load ptr, ptr %6, align 8, !tbaa !9
  %77 = load ptr, ptr %4, align 8, !tbaa !4
  call void @ff_parse_key_value(ptr noundef %76, ptr noundef @handle_digest_update, ptr noundef %77)
  br label %78

78:                                               ; preds = %75, %71
  br label %79

79:                                               ; preds = %78, %70
  ret void
}