; Function Attrs: nounwind uwtable
define void @ff_http_auth_handle_header(ptr noundef %0, ptr noundef %1, ptr noundef %2) local_unnamed_addr #0 {
  %4 = alloca ptr, align 8
  %5 = tail call i32 @av_strcasecmp(ptr noundef %1, ptr noundef nonnull @.str) #8
  %.not = icmp eq i32 %5, 0
  br i1 %.not, label %8, label %6

6:                                                ; preds = %3
  %7 = tail call i32 @av_strcasecmp(ptr noundef %1, ptr noundef nonnull @.str.1) #8
  %.not21 = icmp eq i32 %7, 0
  br i1 %.not21, label %8, label %42

8:                                                ; preds = %6, %3
  call void @llvm.lifetime.start.p0(i64 8, ptr nonnull %4) #8
  %9 = call i32 @av_stristart(ptr noundef %2, ptr noundef nonnull @.str.2, ptr noundef nonnull %4) #8
  %.not22 = icmp eq i32 %9, 0
  br i1 %.not22, label %17, label %10

10:                                               ; preds = %8
  %11 = load i32, ptr %0, align 4, !tbaa !4
  %12 = icmp slt i32 %11, 2
  br i1 %12, label %13, label %17

13:                                               ; preds = %10
  store i32 1, ptr %0, align 4, !tbaa !4
  %14 = getelementptr inbounds nuw i8, ptr %0, i64 4
  store i8 0, ptr %14, align 4, !tbaa !10
  %15 = getelementptr inbounds nuw i8, ptr %0, i64 860
  store i32 0, ptr %15, align 4, !tbaa !11
  %16 = load ptr, ptr %4, align 8, !tbaa !12
  call void @ff_parse_key_value(ptr noundef %16, ptr noundef nonnull @handle_basic_params, ptr noundef nonnull %0) #8
  br label %41

17:                                               ; preds = %10, %8
  %18 = call i32 @av_stristart(ptr noundef %2, ptr noundef nonnull @.str.3, ptr noundef nonnull %4) #8
  %.not23 = icmp eq i32 %18, 0
  br i1 %.not23, label %41, label %19

19:                                               ; preds = %17
  %20 = load i32, ptr %0, align 4, !tbaa !4
  %21 = icmp slt i32 %20, 3
  br i1 %21, label %22, label %41

22:                                               ; preds = %19
  store i32 2, ptr %0, align 4, !tbaa !4
  %23 = getelementptr inbounds nuw i8, ptr %0, i64 204
  %24 = getelementptr inbounds nuw i8, ptr %0, i64 4
  store i8 0, ptr %24, align 4, !tbaa !10
  %25 = getelementptr inbounds nuw i8, ptr %0, i64 860
  call void @llvm.memset.p0.i64(ptr noundef nonnull align 4 dereferenceable(660) %23, i8 0, i64 660, i1 false)
  %26 = load ptr, ptr %4, align 8, !tbaa !12
  call void @ff_parse_key_value(ptr noundef %26, ptr noundef nonnull @handle_digest_params, ptr noundef nonnull %0) #8
  %27 = getelementptr inbounds nuw i8, ptr %0, i64 514
  %28 = call ptr @strstr(ptr noundef nonnull dereferenceable(1) %27, ptr noundef nonnull dereferenceable(1) @.str.14) #9
  %.not.i = icmp eq ptr %28, null
  br i1 %.not.i, label %37, label %29

29:                                               ; preds = %22
  %30 = getelementptr inbounds nuw i8, ptr %28, i64 4
  %31 = load i8, ptr %30, align 1, !tbaa !10
  switch i8 %31, label %37 [
    i8 0, label %av_isspace.exit.thread.i
    i8 32, label %av_isspace.exit.thread.i
    i8 13, label %av_isspace.exit.thread.i
    i8 12, label %av_isspace.exit.thread.i
    i8 10, label %av_isspace.exit.thread.i
    i8 9, label %av_isspace.exit.thread.i
    i8 44, label %av_isspace.exit.thread.i
    i8 11, label %av_isspace.exit.thread.i
  ]

av_isspace.exit.thread.i:                         ; preds = %29, %29, %29, %29, %29, %29, %29, %29
  %32 = icmp eq ptr %28, %27
  br i1 %32, label %av_isspace.exit17.thread.i, label %33

33:                                               ; preds = %av_isspace.exit.thread.i
  %34 = getelementptr inbounds i8, ptr %28, i64 -1
  %35 = load i8, ptr %34, align 1, !tbaa !10
  switch i8 %35, label %37 [
    i8 32, label %av_isspace.exit17.thread.i
    i8 13, label %av_isspace.exit17.thread.i
    i8 12, label %av_isspace.exit17.thread.i
    i8 10, label %av_isspace.exit17.thread.i
    i8 9, label %av_isspace.exit17.thread.i
    i8 44, label %av_isspace.exit17.thread.i
    i8 11, label %av_isspace.exit17.thread.i
  ]

av_isspace.exit17.thread.i:                       ; preds = %33, %33, %33, %33, %33, %33, %33, %av_isspace.exit.thread.i
  %36 = call i64 @av_strlcpy(ptr noundef nonnull %27, ptr noundef nonnull @.str.14, i64 noundef 30) #8
  br label %choose_qop.exit

37:                                               ; preds = %33, %29, %22
  store i8 0, ptr %27, align 1, !tbaa !10
  br label %choose_qop.exit

choose_qop.exit:                                  ; preds = %av_isspace.exit17.thread.i, %37
  %38 = getelementptr inbounds nuw i8, ptr %0, i64 844
  %39 = call i32 @av_strcasecmp(ptr noundef nonnull %38, ptr noundef nonnull @.str.4) #8
  %.not24 = icmp eq i32 %39, 0
  br i1 %.not24, label %40, label %41

40:                                               ; preds = %choose_qop.exit
  store i32 1, ptr %25, align 4, !tbaa !11
  br label %41

41:                                               ; preds = %17, %19, %40, %choose_qop.exit, %13
  call void @llvm.lifetime.end.p0(i64 8, ptr nonnull %4) #8
  br label %45

42:                                               ; preds = %6
  %43 = tail call i32 @av_strcasecmp(ptr noundef %1, ptr noundef nonnull @.str.5) #8
  %.not25 = icmp eq i32 %43, 0
  br i1 %.not25, label %44, label %45

44:                                               ; preds = %42
  tail call void @ff_parse_key_value(ptr noundef %2, ptr noundef nonnull @handle_digest_update, ptr noundef %0) #8
  br label %45

45:                                               ; preds = %42, %44, %41
  ret void
}